target datalayout = "e-m:e-p270:32:32-p271:32:32-p272:64:64-i64:64-i128:128-f80:128-n8:16:32:64-S128"
target triple = "x86_64-pc-linux-gnu"

@.str.65 = private unnamed_addr constant [2 x i8] c"\0A\00", align 1
@.str.84 = private unnamed_addr constant [30 x i8] c"%4d %14.6e %9.2e %9.2e %9.2e \00", align 1
@.str.85 = private unnamed_addr constant [7 x i8] c"%7.2d \00", align 1
@.str.86 = private unnamed_addr constant [5 x i8] c"%7s \00", align 1
@.str.87 = private unnamed_addr constant [2 x i8] c"-\00", align 1
@.str.88 = private unnamed_addr constant [4 x i8] c"%2d\00", align 1
@.str.89 = private unnamed_addr constant [2 x i8] c"F\00", align 1

; Function Attrs: mustprogress uwtable
define void @_ZNK6casadi5Qrsqp15print_iterationExdddddxb(ptr noundef nonnull align 8 dereferenceable(2049) %0, i64 noundef %1, double noundef %2, double noundef %3, double noundef %4, double noundef %5, double noundef %6, i64 noundef %7, i1 noundef zeroext %8) #4 align 2 {
  %10 = alloca ptr, align 8
  %11 = alloca i64, align 8
  %12 = alloca double, align 8
  %13 = alloca double, align 8
  %14 = alloca double, align 8
  %15 = alloca double, align 8
  %16 = alloca double, align 8
  %17 = alloca i64, align 8
  %18 = alloca i8, align 1
  store ptr %0, ptr %10, align 8
  store i64 %1, ptr %11, align 8
  store double %2, ptr %12, align 8
  store double %3, ptr %13, align 8
  store double %4, ptr %14, align 8
  store double %5, ptr %15, align 8
  store double %6, ptr %16, align 8
  store i64 %7, ptr %17, align 8
  %19 = zext i1 %8 to i8
  store i8 %19, ptr %18, align 1
  %20 = load ptr, ptr %10, align 8
  %21 = load i64, ptr %11, align 8
  %22 = load double, ptr %12, align 8
  %23 = load double, ptr %13, align 8
  %24 = load double, ptr %14, align 8
  %25 = load double, ptr %15, align 8
  call void (ptr, ptr, ...) @_ZNK6casadi13ProtoFunction5printEPKcz(ptr noundef nonnull align 8 dereferenceable(168) %20, ptr noundef @.str.84, i64 noundef %21, double noundef %22, double noundef %23, double noundef %24, double noundef %25)
  %26 = load double, ptr %16, align 8
  %27 = fcmp ogt double %26, 0.000000e+00
  br i1 %27, label %28, label %31

28:                                               ; preds = %9
  %29 = load double, ptr %16, align 8
  %30 = call double @log10(double noundef %29) #3
  call void (ptr, ptr, ...) @_ZNK6casadi13ProtoFunction5printEPKcz(ptr noundef nonnull align 8 dereferenceable(168) %20, ptr noundef @.str.85, double noundef %30)
  br label %32

31:                                               ; preds = %9
  call void (ptr, ptr, ...) @_ZNK6casadi13ProtoFunction5printEPKcz(ptr noundef nonnull align 8 dereferenceable(168) %20, ptr noundef @.str.86, ptr noundef @.str.87)
  br label %32

32:                                               ; preds = %31, %28
  %33 = load i64, ptr %17, align 8
  call void (ptr, ptr, ...) @_ZNK6casadi13ProtoFunction5printEPKcz(ptr noundef nonnull align 8 dereferenceable(168) %20, ptr noundef @.str.88, i64 noundef %33)
  %34 = load i8, ptr %18, align 1
  %35 = trunc i8 %34 to i1
  br i1 %35, label %37, label %36

36:                                               ; preds = %32
  call void (ptr, ptr, ...) @_ZNK6casadi13ProtoFunction5printEPKcz(ptr noundef nonnull align 8 dereferenceable(168) %20, ptr noundef @.str.89)
  br label %37

37:                                               ; preds = %36, %32
  call void (ptr, ptr, ...) @_ZNK6casadi13ProtoFunction5printEPKcz(ptr noundef nonnull align 8 dereferenceable(168) %20, ptr noundef @.str.65)
  ret void
}