; Function Attrs: mustprogress uwtable
define void @_ZNK6casadi5Qrsqp15print_iterationExdddddxb(ptr noundef nonnull align 8 dereferenceable(2049) %0, i64 noundef %1, double noundef %2, double noundef %3, double noundef %4, double noundef %5, double noundef %6, i64 noundef %7, i1 noundef zeroext %8) local_unnamed_addr #3 align 2 {
  tail call void (ptr, ptr, ...) @_ZNK6casadi13ProtoFunction5printEPKcz(ptr noundef nonnull align 8 dereferenceable(168) %0, ptr noundef nonnull @.str.84, i64 noundef %1, double noundef %2, double noundef %3, double noundef %4, double noundef %5)
  %10 = fcmp ogt double %6, 0.000000e+00
  br i1 %10, label %11, label %13

11:                                               ; preds = %9
  %12 = tail call double @log10(double noundef %6) #19
  tail call void (ptr, ptr, ...) @_ZNK6casadi13ProtoFunction5printEPKcz(ptr noundef nonnull align 8 dereferenceable(168) %0, ptr noundef nonnull @.str.85, double noundef %12)
  br label %14

13:                                               ; preds = %9
  tail call void (ptr, ptr, ...) @_ZNK6casadi13ProtoFunction5printEPKcz(ptr noundef nonnull align 8 dereferenceable(168) %0, ptr noundef nonnull @.str.86, ptr noundef nonnull @.str.87)
  br label %14

14:                                               ; preds = %13, %11
  tail call void (ptr, ptr, ...) @_ZNK6casadi13ProtoFunction5printEPKcz(ptr noundef nonnull align 8 dereferenceable(168) %0, ptr noundef nonnull @.str.88, i64 noundef %7)
  br i1 %8, label %16, label %15

15:                                               ; preds = %14
  tail call void (ptr, ptr, ...) @_ZNK6casadi13ProtoFunction5printEPKcz(ptr noundef nonnull align 8 dereferenceable(168) %0, ptr noundef nonnull @.str.89)
  br label %16

16:                                               ; preds = %15, %14
  tail call void (ptr, ptr, ...) @_ZNK6casadi13ProtoFunction5printEPKcz(ptr noundef nonnull align 8 dereferenceable(168) %0, ptr noundef nonnull @.str.65)
  ret void
}